	.syntax unified
	.cpu cortex-m4
	.eabi_attribute 27, 3
	.fpu fpv4-sp-d16
	.eabi_attribute 20, 1
	.eabi_attribute 21, 1
	.eabi_attribute 23, 3
	.eabi_attribute 24, 1
	.eabi_attribute 25, 1
	.eabi_attribute 26, 2
	.eabi_attribute 30, 2
	.eabi_attribute 34, 1
	.eabi_attribute 18, 4
	.thumb
	.file	"port.c"
	.text
.Ltext0:
	.cfi_sections	.debug_frame
	.section	.text.prvTaskExitError,"ax",%progbits
	.align	2
	.thumb
	.thumb_func
	.type	prvTaskExitError, %function
prvTaskExitError:
.LFB6:
	.file 1 "port.c"
	.loc 1 218 0
	.cfi_startproc
	@ args = 0, pretend = 0, frame = 8
	@ frame_needed = 0, uses_anonymous_args = 0
	@ link register save eliminated.
	sub	sp, sp, #8
	.cfi_def_cfa_offset 8
	.loc 1 219 0
	movs	r3, #0
	str	r3, [sp, #4]
.LBB16:
.LBB17:
	.file 2 "./portmacro.h"
	.loc 2 195 0
@ 195 "./portmacro.h" 1
		mov r3, #80												
	msr basepri, r3											
	isb														
	dsb														

@ 0 "" 2
.LVL0:
	.thumb
.L2:
.LBE17:
.LBE16:
	.loc 1 229 0 discriminator 1
	ldr	r3, [sp, #4]
	cmp	r3, #0
	beq	.L2
	.loc 1 239 0
	add	sp, sp, #8
	.cfi_def_cfa_offset 0
	@ sp needed
	bx	lr
	.cfi_endproc
.LFE6:
	.size	prvTaskExitError, .-prvTaskExitError
	.section	.text.prvPortStartFirstTask,"ax",%progbits
	.align	2
	.thumb
	.thumb_func
	.type	prvPortStartFirstTask, %function
prvPortStartFirstTask:
.LFB8:
	.loc 1 262 0
	.cfi_startproc
	@ Naked Function: prologue and epilogue provided by programmer.
	@ args = 0, pretend = 0, frame = 0
	@ frame_needed = 0, uses_anonymous_args = 0
	.loc 1 267 0
@ 267 "port.c" 1
	 ldr r0, =0xE000ED08 	
 ldr r0, [r0] 			
 ldr r0, [r0] 			
 msr msp, r0			
 mov r0, #0			
 msr control, r0		
 cpsie i				
 cpsie f				
 dsb					
 isb					
 svc 0					
 nop					

@ 0 "" 2
	.loc 1 281 0
	.thumb
	.cfi_endproc
.LFE8:
	.size	prvPortStartFirstTask, .-prvPortStartFirstTask
	.section	.text.vPortEnableVFP,"ax",%progbits
	.align	2
	.thumb
	.thumb_func
	.type	vPortEnableVFP, %function
vPortEnableVFP:
.LFB17:
	.loc 1 708 0
	.cfi_startproc
	@ Naked Function: prologue and epilogue provided by programmer.
	@ args = 0, pretend = 0, frame = 0
	@ frame_needed = 0, uses_anonymous_args = 0
	.loc 1 709 0
@ 709 "port.c" 1
		ldr.w r0, =0xE000ED88		
	ldr r1, [r0]				
								
	orr r1, r1, #( 0xf << 20 )	
	str r1, [r0]				
	bx r14						
@ 0 "" 2
	.loc 1 718 0
	.thumb
	.cfi_endproc
.LFE17:
	.size	vPortEnableVFP, .-vPortEnableVFP
	.section	.text.pxPortInitialiseStack,"ax",%progbits
	.align	2
	.global	pxPortInitialiseStack
	.thumb
	.thumb_func
	.type	pxPortInitialiseStack, %function
pxPortInitialiseStack:
.LFB5:
	.loc 1 188 0
	.cfi_startproc
	@ args = 0, pretend = 0, frame = 0
	@ frame_needed = 0, uses_anonymous_args = 0
	@ link register save eliminated.
.LVL1:
	push	{r4, r5}
	.cfi_def_cfa_offset 8
	.cfi_offset 4, -8
	.cfi_offset 5, -4
	.loc 1 198 0
	bic	r1, r1, #1
.LVL2:
	.loc 1 196 0
	mov	r5, #16777216
	.loc 1 200 0
	ldr	r4, .L11
	str	r4, [r0, #-12]
	.loc 1 209 0
	mvn	r3, #2
	.loc 1 204 0
	str	r2, [r0, #-32]
	.loc 1 196 0
	stmdb	r0, {r1, r5}
.LVL3:
	.loc 1 209 0
	str	r3, [r0, #-36]
.LVL4:
	.loc 1 214 0
	pop	{r4, r5}
	.cfi_restore 5
	.cfi_restore 4
	.cfi_def_cfa_offset 0
	subs	r0, r0, #68
.LVL5:
	bx	lr
.L12:
	.align	2
.L11:
	.word	prvTaskExitError
	.cfi_endproc
.LFE5:
	.size	pxPortInitialiseStack, .-pxPortInitialiseStack
	.section	.text.vPortSVCHandler,"ax",%progbits
	.align	2
	.global	vPortSVCHandler
	.thumb
	.thumb_func
	.type	vPortSVCHandler, %function
vPortSVCHandler:
.LFB7:
	.loc 1 243 0
	.cfi_startproc
	@ Naked Function: prologue and epilogue provided by programmer.
	@ args = 0, pretend = 0, frame = 0
	@ frame_needed = 0, uses_anonymous_args = 0
	.loc 1 244 0
@ 244 "port.c" 1
		ldr	r3, pxCurrentTCBConst2		
	ldr r1, [r3]					
	ldr r0, [r1]					
	ldmia r0!, {r4-r11, r14}		
	msr psp, r0						
	isb								
	mov r0, #0 						
	msr	basepri, r0					
	bx r14							
									
	.align 4						
pxCurrentTCBConst2: .word pxCurrentTCB				

@ 0 "" 2
	.loc 1 258 0
	.thumb
	.cfi_endproc
.LFE7:
	.size	vPortSVCHandler, .-vPortSVCHandler
	.section	.text.vPortEndScheduler,"ax",%progbits
	.align	2
	.global	vPortEndScheduler
	.thumb
	.thumb_func
	.type	vPortEndScheduler, %function
vPortEndScheduler:
.LFB10:
	.loc 1 402 0
	.cfi_startproc
	@ args = 0, pretend = 0, frame = 0
	@ frame_needed = 0, uses_anonymous_args = 0
	@ link register save eliminated.
	bx	lr
	.cfi_endproc
.LFE10:
	.size	vPortEndScheduler, .-vPortEndScheduler
	.section	.text.vPortEnterCritical,"ax",%progbits
	.align	2
	.global	vPortEnterCritical
	.thumb
	.thumb_func
	.type	vPortEnterCritical, %function
vPortEnterCritical:
.LFB11:
	.loc 1 410 0
	.cfi_startproc
	@ args = 0, pretend = 0, frame = 0
	@ frame_needed = 0, uses_anonymous_args = 0
	@ link register save eliminated.
.LBB18:
.LBB19:
	.loc 2 195 0
@ 195 "./portmacro.h" 1
		mov r3, #80												
	msr basepri, r3											
	isb														
	dsb														

@ 0 "" 2
.LVL6:
	.thumb
.LBE19:
.LBE18:
	.loc 1 412 0
	ldr	r2, .L16
	ldr	r3, [r2]
	adds	r3, r3, #1
	str	r3, [r2]
	bx	lr
.L17:
	.align	2
.L16:
	.word	.LANCHOR0
	.cfi_endproc
.LFE11:
	.size	vPortEnterCritical, .-vPortEnterCritical
	.section	.text.vPortExitCritical,"ax",%progbits
	.align	2
	.global	vPortExitCritical
	.thumb
	.thumb_func
	.type	vPortExitCritical, %function
vPortExitCritical:
.LFB12:
	.loc 1 427 0
	.cfi_startproc
	@ args = 0, pretend = 0, frame = 0
	@ frame_needed = 0, uses_anonymous_args = 0
	@ link register save eliminated.
	.loc 1 429 0
	ldr	r2, .L20
	ldr	r3, [r2]
	subs	r3, r3, #1
	str	r3, [r2]
	.loc 1 430 0
	cbnz	r3, .L18
.LVL7:
.LBB20:
.LBB21:
	.loc 2 229 0
@ 229 "./portmacro.h" 1
		msr basepri, r3	
@ 0 "" 2
.LVL8:
	.thumb
.L18:
	bx	lr
.L21:
	.align	2
.L20:
	.word	.LANCHOR0
.LBE21:
.LBE20:
	.cfi_endproc
.LFE12:
	.size	vPortExitCritical, .-vPortExitCritical
	.section	.text.xPortPendSVHandler,"ax",%progbits
	.align	2
	.global	xPortPendSVHandler
	.thumb
	.thumb_func
	.type	xPortPendSVHandler, %function
xPortPendSVHandler:
.LFB13:
	.loc 1 438 0
	.cfi_startproc
	@ Naked Function: prologue and epilogue provided by programmer.
	@ args = 0, pretend = 0, frame = 0
	@ frame_needed = 0, uses_anonymous_args = 0
	.loc 1 441 0
@ 441 "port.c" 1
		mrs r0, psp							
	isb									
										
	ldr	r3, pxCurrentTCBConst			
	ldr	r2, [r3]						
										
	tst r14, #0x10						
	it eq								
	vstmdbeq r0!, {s16-s31}				
										
	stmdb r0!, {r4-r11, r14}			
	str r0, [r2]						
										
	stmdb sp!, {r0, r3}					
	mov r0, #80 							
	msr basepri, r0						
	dsb									
	isb									
	bl vTaskSwitchContext				
	mov r0, #0							
	msr basepri, r0						
	ldmia sp!, {r0, r3}					
										
	ldr r1, [r3]						
	ldr r0, [r1]						
										
	ldmia r0!, {r4-r11, r14}			
										
	tst r14, #0x10						
	it eq								
	vldmiaeq r0!, {s16-s31}				
										
	msr psp, r0							
	isb									
										
										
	bx r14								
										
	.align 4							
pxCurrentTCBConst: .word pxCurrentTCB	

@ 0 "" 2
	.loc 1 491 0
	.thumb
	.cfi_endproc
.LFE13:
	.size	xPortPendSVHandler, .-xPortPendSVHandler
	.section	.text.xPortSysTickHandler,"ax",%progbits
	.align	2
	.global	xPortSysTickHandler
	.thumb
	.thumb_func
	.type	xPortSysTickHandler, %function
xPortSysTickHandler:
.LFB14:
	.loc 1 495 0
	.cfi_startproc
	@ args = 0, pretend = 0, frame = 0
	@ frame_needed = 0, uses_anonymous_args = 0
	push	{r3, lr}
	.cfi_def_cfa_offset 8
	.cfi_offset 3, -8
	.cfi_offset 14, -4
.LBB22:
.LBB23:
	.loc 2 195 0
@ 195 "./portmacro.h" 1
		mov r3, #80												
	msr basepri, r3											
	isb														
	dsb														

@ 0 "" 2
.LVL9:
	.thumb
.LBE23:
.LBE22:
	.loc 1 503 0
	bl	xTaskIncrementTick
.LVL10:
	cbz	r0, .L24
	.loc 1 507 0
	ldr	r3, .L29
	mov	r2, #268435456
	str	r2, [r3]
.L24:
.LVL11:
.LBB24:
.LBB25:
	.loc 2 229 0
	movs	r3, #0
@ 229 "./portmacro.h" 1
		msr basepri, r3	
@ 0 "" 2
	.thumb
	pop	{r3, pc}
.L30:
	.align	2
.L29:
	.word	-536810236
.LBE25:
.LBE24:
	.cfi_endproc
.LFE14:
	.size	xPortSysTickHandler, .-xPortSysTickHandler
	.section	.text.vPortSuppressTicksAndSleep,"ax",%progbits
	.align	2
	.weak	vPortSuppressTicksAndSleep
	.thumb
	.thumb_func
	.type	vPortSuppressTicksAndSleep, %function
vPortSuppressTicksAndSleep:
.LFB15:
	.loc 1 517 0
	.cfi_startproc
	@ args = 0, pretend = 0, frame = 16
	@ frame_needed = 0, uses_anonymous_args = 0
.LVL12:
	push	{r4, r5, r6, lr}
	.cfi_def_cfa_offset 16
	.cfi_offset 4, -16
	.cfi_offset 5, -12
	.cfi_offset 6, -8
	.cfi_offset 14, -4
	.loc 1 522 0
	ldr	r3, .L45
	.loc 1 531 0
	ldr	r2, .L45+4
	.loc 1 522 0
	ldr	r3, [r3]
	.loc 1 536 0
	ldr	r5, .L45+8
	ldr	r1, .L45+12
	.loc 1 537 0
	ldr	r6, .L45+16
	.loc 1 517 0
	sub	sp, sp, #16
	.cfi_def_cfa_offset 32
	.loc 1 522 0
	cmp	r0, r3
	.loc 1 517 0
	str	r0, [sp, #4]
	.loc 1 524 0
	it	hi
	strhi	r3, [sp, #4]
	.loc 1 531 0
	ldr	r3, [r2]
	bic	r3, r3, #1
	str	r3, [r2]
	.loc 1 536 0
	ldr	r3, [sp, #4]
	ldr	r1, [r1]
	ldr	r4, [r5]
	.loc 1 537 0
	ldr	r2, [r6]
	.loc 1 536 0
	subs	r3, r3, #1
	mla	r4, r4, r3, r1
.LVL13:
	.loc 1 537 0
	cmp	r4, r2
	.loc 1 539 0
	it	hi
	subhi	r4, r4, r2
.LVL14:
	.loc 1 544 0
@ 544 "port.c" 1
	cpsid i
@ 0 "" 2
	.loc 1 545 0
@ 545 "port.c" 1
	dsb
@ 0 "" 2
	.loc 1 546 0
@ 546 "port.c" 1
	isb
@ 0 "" 2
	.loc 1 550 0
	.thumb
	bl	eTaskConfirmSleepModeStatus
.LVL15:
	cbnz	r0, .L34
	.loc 1 554 0
	ldr	r3, .L45+12
	ldr	r2, .L45+20
	ldr	r3, [r3]
	.loc 1 557 0
	ldr	r1, .L45+4
	.loc 1 554 0
	str	r3, [r2]
	.loc 1 557 0
	ldr	r3, [r1]
	orr	r3, r3, #1
	str	r3, [r1]
	.loc 1 561 0
	ldr	r3, [r5]
	subs	r3, r3, #1
	str	r3, [r2]
	.loc 1 565 0
@ 565 "port.c" 1
	cpsie i
@ 0 "" 2
	.loc 1 676 0
	.thumb
	add	sp, sp, #16
	.cfi_remember_state
	.cfi_def_cfa_offset 16
	@ sp needed
	pop	{r4, r5, r6, pc}
.LVL16:
.L34:
	.cfi_restore_state
	.loc 1 570 0
	ldr	r1, .L45+20
	.loc 1 574 0
	ldr	r3, .L45+12
	.loc 1 570 0
	str	r4, [r1]
	.loc 1 577 0
	ldr	r2, .L45+4
	.loc 1 574 0
	movs	r1, #0
	str	r1, [r3]
	.loc 1 577 0
	ldr	r3, [r2]
	orr	r3, r3, #1
	str	r3, [r2]
	.loc 1 584 0
	add	r0, sp, #16
	ldr	r3, [sp, #4]
	str	r3, [r0, #-4]!
	.loc 1 585 0
	bl	freertos_pre_sleep_processing
.LVL17:
	.loc 1 586 0
	ldr	r3, [sp, #12]
	cbz	r3, .L36
	.loc 1 588 0
@ 588 "port.c" 1
	dsb
@ 0 "" 2
	.loc 1 589 0
@ 589 "port.c" 1
	wfi
@ 0 "" 2
	.loc 1 590 0
@ 590 "port.c" 1
	isb
@ 0 "" 2
	.thumb
.L36:
	.loc 1 592 0
	add	r0, sp, #4
	bl	freertos_post_sleep_processing
.LVL18:
	.loc 1 597 0
@ 597 "port.c" 1
	cpsie i
@ 0 "" 2
	.loc 1 598 0
@ 598 "port.c" 1
	dsb
@ 0 "" 2
	.loc 1 599 0
@ 599 "port.c" 1
	isb
@ 0 "" 2
	.loc 1 605 0
@ 605 "port.c" 1
	cpsid i
@ 0 "" 2
	.loc 1 606 0
@ 606 "port.c" 1
	dsb
@ 0 "" 2
	.loc 1 607 0
@ 607 "port.c" 1
	isb
@ 0 "" 2
	.loc 1 616 0
	.thumb
	ldr	r3, .L45+4
	movs	r2, #2
	str	r2, [r3]
	.loc 1 623 0
	ldr	r3, [r3]
	lsls	r3, r3, #15
	bpl	.L37
.LBB26:
	.loc 1 631 0
	ldr	r3, .L45+12
	ldr	r2, [r5]
	ldr	r3, [r3]
	.loc 1 636 0
	ldr	r1, [r6]
	add	r3, r3, r2
	subs	r3, r3, #1
	.loc 1 631 0
	subs	r4, r3, r4
.LVL19:
	.loc 1 636 0
	cmp	r4, r1
	bcc	.L38
	.loc 1 636 0 is_stmt 0 discriminator 1
	cmp	r2, r4
	bcs	.L39
.L38:
	.loc 1 638 0 is_stmt 1
	subs	r4, r2, #1
.LVL20:
.L39:
	.loc 1 641 0
	ldr	r3, .L45+20
	str	r4, [r3]
	.loc 1 646 0
	ldr	r0, [sp, #4]
	subs	r0, r0, #1
.LVL21:
.LBE26:
	b	.L40
.LVL22:
.L37:
	.loc 1 654 0
	ldr	r2, .L45+12
	ldr	r3, [r5]
	ldr	r1, [sp, #4]
	ldr	r2, [r2]
	.loc 1 662 0
	ldr	r4, .L45+20
.LVL23:
	.loc 1 654 0
	mul	r1, r1, r3
	subs	r2, r1, r2
.LVL24:
	.loc 1 658 0
	udiv	r0, r2, r3
.LVL25:
	.loc 1 662 0
	mla	r3, r0, r3, r3
	subs	r3, r3, r2
	str	r3, [r4]
.LVL26:
.L40:
	.loc 1 668 0
	ldr	r3, .L45+12
	.loc 1 669 0
	ldr	r2, .L45+4
	.loc 1 668 0
	movs	r1, #0
	str	r1, [r3]
	.loc 1 669 0
	ldr	r3, [r2]
	orr	r3, r3, #1
	str	r3, [r2]
	.loc 1 670 0
	bl	vTaskStepTick
.LVL27:
	.loc 1 671 0
	ldr	r3, [r5]
	ldr	r2, .L45+20
	subs	r3, r3, #1
	str	r3, [r2]
	.loc 1 674 0
@ 674 "port.c" 1
	cpsie i
@ 0 "" 2
	.loc 1 676 0
	.thumb
	add	sp, sp, #16
	.cfi_def_cfa_offset 16
	@ sp needed
	pop	{r4, r5, r6, pc}
.L46:
	.align	2
.L45:
	.word	.LANCHOR1
	.word	-536813552
	.word	.LANCHOR2
	.word	-536813544
	.word	.LANCHOR3
	.word	-536813548
	.cfi_endproc
.LFE15:
	.size	vPortSuppressTicksAndSleep, .-vPortSuppressTicksAndSleep
	.section	.text.vPortSetupTimerInterrupt,"ax",%progbits
	.align	2
	.weak	vPortSetupTimerInterrupt
	.thumb
	.thumb_func
	.type	vPortSetupTimerInterrupt, %function
vPortSetupTimerInterrupt:
.LFB16:
	.loc 1 686 0
	.cfi_startproc
	@ args = 0, pretend = 0, frame = 0
	@ frame_needed = 0, uses_anonymous_args = 0
	push	{r4, r5, r6, r7, lr}
	.cfi_def_cfa_offset 20
	.cfi_offset 4, -20
	.cfi_offset 5, -16
	.cfi_offset 6, -12
	.cfi_offset 7, -8
	.cfi_offset 14, -4
	.loc 1 691 0
	ldr	r3, .L49
	.loc 1 697 0
	ldr	r2, .L49+4
	.loc 1 691 0
	ldr	r1, .L49+8
	.loc 1 690 0
	ldr	r7, .L49+12
	.loc 1 692 0
	ldr	r6, .L49+16
	.loc 1 698 0
	ldr	r5, .L49+20
	.loc 1 701 0
	ldr	r0, .L49+24
	.loc 1 691 0
	str	r1, [r3]
	.loc 1 690 0
	mov	lr, #32
	.loc 1 692 0
	movs	r3, #0
	.loc 1 701 0
	movs	r4, #31
	.loc 1 702 0
	movs	r1, #3
	.loc 1 690 0
	str	lr, [r7]
	.loc 1 692 0
	str	r3, [r6]
	.loc 1 697 0
	str	r3, [r2]
	.loc 1 698 0
	str	r3, [r5]
	.loc 1 701 0
	str	r4, [r0]
	.loc 1 702 0
	str	r1, [r2]
	pop	{r4, r5, r6, r7, pc}
.L50:
	.align	2
.L49:
	.word	.LANCHOR1
	.word	-536813552
	.word	524287
	.word	.LANCHOR2
	.word	.LANCHOR3
	.word	-536813544
	.word	-536813548
	.cfi_endproc
.LFE16:
	.size	vPortSetupTimerInterrupt, .-vPortSetupTimerInterrupt
	.section	.text.xPortStartScheduler,"ax",%progbits
	.align	2
	.global	xPortStartScheduler
	.thumb
	.thumb_func
	.type	xPortStartScheduler, %function
xPortStartScheduler:
.LFB9:
	.loc 1 288 0
	.cfi_startproc
	@ args = 0, pretend = 0, frame = 8
	@ frame_needed = 0, uses_anonymous_args = 0
	.loc 1 368 0
	ldr	r3, .L56
	ldr	r2, [r3]
	.loc 1 288 0
	push	{r4, lr}
	.cfi_def_cfa_offset 8
	.cfi_offset 4, -8
	.cfi_offset 14, -4
	.loc 1 368 0
	orr	r2, r2, #15728640
	str	r2, [r3]
	.loc 1 369 0
	ldr	r2, [r3]
	orr	r2, r2, #-268435456
	.loc 1 288 0
	sub	sp, sp, #8
	.cfi_def_cfa_offset 16
	.loc 1 369 0
	str	r2, [r3]
	.loc 1 373 0
	bl	vPortSetupTimerInterrupt
.LVL28:
	.loc 1 376 0
	ldr	r3, .L56+4
	movs	r4, #0
	str	r4, [r3]
	.loc 1 379 0
	bl	vPortEnableVFP
.LVL29:
	.loc 1 382 0
	ldr	r2, .L56+8
	ldr	r3, [r2]
	orr	r3, r3, #-1073741824
	str	r3, [r2]
	.loc 1 385 0
	bl	prvPortStartFirstTask
.LVL30:
	.loc 1 393 0
	bl	vTaskSwitchContext
.LVL31:
.LBB27:
.LBB28:
	.loc 1 219 0
	str	r4, [sp, #4]
.LBB29:
.LBB30:
	.loc 2 195 0
@ 195 "./portmacro.h" 1
		mov r3, #80												
	msr basepri, r3											
	isb														
	dsb														

@ 0 "" 2
.LVL32:
	.thumb
.L52:
.LBE30:
.LBE29:
	.loc 1 229 0
	ldr	r3, [sp, #4]
	cmp	r3, #0
	beq	.L52
.LBE28:
.LBE27:
	.loc 1 398 0
	movs	r0, #0
	add	sp, sp, #8
	.cfi_def_cfa_offset 8
	@ sp needed
	pop	{r4, pc}
.L57:
	.align	2
.L56:
	.word	-536810208
	.word	.LANCHOR0
	.word	-536809676
	.cfi_endproc
.LFE9:
	.size	xPortStartScheduler, .-xPortStartScheduler
	.section	.text.vApplicationIdleHook,"ax",%progbits
	.align	2
	.global	vApplicationIdleHook
	.thumb
	.thumb_func
	.type	vApplicationIdleHook, %function
vApplicationIdleHook:
.LFB18:
	.loc 1 783 0
	.cfi_startproc
	@ args = 0, pretend = 0, frame = 0
	@ frame_needed = 0, uses_anonymous_args = 0
	@ link register save eliminated.
	bx	lr
	.cfi_endproc
.LFE18:
	.size	vApplicationIdleHook, .-vApplicationIdleHook
	.section	.bss.ulTimerCountsForOneTick,"aw",%nobits
	.align	2
	.set	.LANCHOR2,. + 0
	.type	ulTimerCountsForOneTick, %object
	.size	ulTimerCountsForOneTick, 4
ulTimerCountsForOneTick:
	.space	4
	.section	.bss.ulStoppedTimerCompensation,"aw",%nobits
	.align	2
	.set	.LANCHOR3,. + 0
	.type	ulStoppedTimerCompensation, %object
	.size	ulStoppedTimerCompensation, 4
ulStoppedTimerCompensation:
	.space	4
	.section	.bss.xMaximumPossibleSuppressedTicks,"aw",%nobits
	.align	2
	.set	.LANCHOR1,. + 0
	.type	xMaximumPossibleSuppressedTicks, %object
	.size	xMaximumPossibleSuppressedTicks, 4
xMaximumPossibleSuppressedTicks:
	.space	4
	.section	.data.uxCriticalNesting,"aw",%progbits
	.align	2
	.set	.LANCHOR0,. + 0
	.type	uxCriticalNesting, %object
	.size	uxCriticalNesting, 4
uxCriticalNesting:
	.word	-1431655766
	.text
.Letext0:
	.file 3 "/export/disk2/qt/v4.1a.mp/project/weifateck_bellaz_va0_gcc_verification/toolchain/linux/asdk-4.9.3-m4-EL-rtos-n2.1-a16ft-150519/include/machine/_default_types.h"
	.file 4 "/export/disk2/qt/v4.1a.mp/project/weifateck_bellaz_va0_gcc_verification/toolchain/linux/asdk-4.9.3-m4-EL-rtos-n2.1-a16ft-150519/include/stdint.h"
	.file 5 "/export/disk2/qt/v4.1a.mp/project/weifateck_bellaz_va0_gcc_verification/asdk/../../../component/os/freertos/freertos_v10.0.1/Source/include/projdefs.h"
	.file 6 "/export/disk2/qt/v4.1a.mp/project/weifateck_bellaz_va0_gcc_verification/asdk/../../../component/os/freertos/freertos_v10.0.1/Source/include/task.h"
	.file 7 "/export/disk2/qt/v4.1a.mp/project/weifateck_bellaz_va0_gcc_verification/asdk/../inc/FreeRTOSConfig.h"